; Function Attrs: mustprogress nofree norecurse nosync nounwind willreturn memory(read, inaccessiblemem: none) uwtable
define dso_local noundef ptr @_ZNK5clang4ento9VarRegion13getStackFrameEv(ptr nocapture noundef nonnull readonly align 8 dereferenceable(56) %0) local_unnamed_addr #4 align 2 {
  %2 = getelementptr inbounds nuw i8, ptr %0, i64 16
  %3 = load i32, ptr %2, align 8
  %4 = icmp slt i32 %3, 9
  br i1 %4, label %_ZNK5clang4ento9MemRegion14getMemorySpaceEv.exit, label %select.unfold.i

select.unfold.i:                                  ; preds = %1, %select.unfold.i
  %.010.i = phi ptr [ %6, %select.unfold.i ], [ %0, %1 ]
  %5 = getelementptr inbounds nuw i8, ptr %.010.i, i64 48
  %6 = load ptr, ptr %5, align 8
  %7 = getelementptr inbounds nuw i8, ptr %6, i64 16
  %8 = load i32, ptr %7, align 8
  %9 = icmp slt i32 %8, 9
  %.not11.i = icmp eq ptr %6, null
  %.not.i = or i1 %.not11.i, %9
  br i1 %.not.i, label %_ZNK5clang4ento9MemRegion14getMemorySpaceEv.exit, label %select.unfold.i

_ZNK5clang4ento9MemRegion14getMemorySpaceEv.exit: ; preds = %select.unfold.i, %1
  %10 = phi i32 [ %3, %1 ], [ %8, %select.unfold.i ]
  %.05.lcssa.i = phi ptr [ %0, %1 ], [ %6, %select.unfold.i ]
  %11 = and i32 %10, -2
  %.not = icmp eq i32 %11, 6
  br i1 %.not, label %12, label %15

12:                                               ; preds = %_ZNK5clang4ento9MemRegion14getMemorySpaceEv.exit
  %13 = getelementptr inbounds nuw i8, ptr %.05.lcssa.i, i64 56
  %14 = load ptr, ptr %13, align 8
  br label %15

15:                                               ; preds = %_ZNK5clang4ento9MemRegion14getMemorySpaceEv.exit, %12
  %16 = phi ptr [ %14, %12 ], [ null, %_ZNK5clang4ento9MemRegion14getMemorySpaceEv.exit ]
  ret ptr %16
}